target datalayout = "e-m:e-p270:32:32-p271:32:32-p272:64:64-i64:64-i128:128-f80:128-n8:16:32:64-S128"
target triple = "x86_64-pc-linux-gnu"

%struct.aofManifest = type { ptr, ptr, ptr, i64, i64, i32 }
%struct.list = type { ptr, ptr, ptr, ptr, ptr, i64 }

; Function Attrs: nounwind uwtable
define dso_local ptr @aofManifestCreate() #0 {
  %1 = alloca ptr, align 8
  call void @llvm.lifetime.start.p0(i64 8, ptr %1) #12
  %2 = call noalias ptr @zcalloc(i64 noundef 48) #13
  store ptr %2, ptr %1, align 8, !tbaa !5
  %3 = call ptr @listCreate()
  %4 = load ptr, ptr %1, align 8, !tbaa !5
  %5 = getelementptr inbounds nuw %struct.aofManifest, ptr %4, i32 0, i32 1
  store ptr %3, ptr %5, align 8, !tbaa !25
  %6 = call ptr @listCreate()
  %7 = load ptr, ptr %1, align 8, !tbaa !5
  %8 = getelementptr inbounds nuw %struct.aofManifest, ptr %7, i32 0, i32 2
  store ptr %6, ptr %8, align 8, !tbaa !28
  %9 = load ptr, ptr %1, align 8, !tbaa !5
  %10 = getelementptr inbounds nuw %struct.aofManifest, ptr %9, i32 0, i32 1
  %11 = load ptr, ptr %10, align 8, !tbaa !25
  %12 = getelementptr inbounds nuw %struct.list, ptr %11, i32 0, i32 3
  store ptr @aofListFree, ptr %12, align 8, !tbaa !29
  %13 = load ptr, ptr %1, align 8, !tbaa !5
  %14 = getelementptr inbounds nuw %struct.aofManifest, ptr %13, i32 0, i32 1
  %15 = load ptr, ptr %14, align 8, !tbaa !25
  %16 = getelementptr inbounds nuw %struct.list, ptr %15, i32 0, i32 2
  store ptr @aofListDup, ptr %16, align 8, !tbaa !32
  %17 = load ptr, ptr %1, align 8, !tbaa !5
  %18 = getelementptr inbounds nuw %struct.aofManifest, ptr %17, i32 0, i32 2
  %19 = load ptr, ptr %18, align 8, !tbaa !28
  %20 = getelementptr inbounds nuw %struct.list, ptr %19, i32 0, i32 3
  store ptr @aofListFree, ptr %20, align 8, !tbaa !29
  %21 = load ptr, ptr %1, align 8, !tbaa !5
  %22 = getelementptr inbounds nuw %struct.aofManifest, ptr %21, i32 0, i32 2
  %23 = load ptr, ptr %22, align 8, !tbaa !28
  %24 = getelementptr inbounds nuw %struct.list, ptr %23, i32 0, i32 2
  store ptr @aofListDup, ptr %24, align 8, !tbaa !32
  %25 = load ptr, ptr %1, align 8, !tbaa !5
  call void @llvm.lifetime.end.p0(i64 8, ptr %1) #12
  ret ptr %25
}