; Function Attrs: nounwind uwtable
define dso_local noalias noundef ptr @aofManifestCreate() local_unnamed_addr #0 {
  %1 = tail call noalias dereferenceable_or_null(48) ptr @zcalloc(i64 noundef 48) #19
  %2 = tail call ptr @listCreate() #20
  %3 = getelementptr inbounds nuw i8, ptr %1, i64 8
  store ptr %2, ptr %3, align 8, !tbaa !24
  %4 = tail call ptr @listCreate() #20
  %5 = getelementptr inbounds nuw i8, ptr %1, i64 16
  store ptr %4, ptr %5, align 8, !tbaa !27
  %6 = getelementptr inbounds nuw i8, ptr %2, i64 24
  store ptr @aofListFree, ptr %6, align 8, !tbaa !28
  %7 = getelementptr inbounds nuw i8, ptr %2, i64 16
  store ptr @aofListDup, ptr %7, align 8, !tbaa !31
  %8 = getelementptr inbounds nuw i8, ptr %4, i64 24
  store ptr @aofListFree, ptr %8, align 8, !tbaa !28
  %9 = getelementptr inbounds nuw i8, ptr %4, i64 16
  store ptr @aofListDup, ptr %9, align 8, !tbaa !31
  ret ptr %1
}